target datalayout = "e-m:e-p270:32:32-p271:32:32-p272:64:64-i64:64-i128:128-f80:128-n8:16:32:64-S128"
target triple = "x86_64-unknown-linux-gnu"

%struct.tsd_s = type { i8, i8, i64, i64, i64, i64, i64, i64, i64, i64, i64, i64, i64, i64, ptr, i64, i64, i64, ptr, ptr, %struct.ticker_geom_s, i8, %struct.tsd_binshards_s, %struct.tsd_link_t, i8, %struct.peak_s, %struct.activity_callback_thunk_s, %struct.tcache_slow_s, %struct.rtree_ctx_s, %struct.atomic_u8_t, i64, i64, i64, i64, %struct.tcache_s, %struct.witness_tsd_s }
%struct.ticker_geom_s = type { i32, i32 }
%struct.tsd_binshards_s = type { [39 x i8] }
%struct.tsd_link_t = type { ptr, ptr }
%struct.peak_s = type { i64, i64 }
%struct.activity_callback_thunk_s = type { ptr, ptr }
%struct.tcache_slow_s = type { %struct.anon.8, %struct.cache_bin_array_descriptor_s, ptr, i32, [39 x i8], [39 x i8], [39 x i8], ptr, ptr }
%struct.anon.8 = type { ptr, ptr }
%struct.cache_bin_array_descriptor_s = type { %struct.anon.9, ptr }
%struct.anon.9 = type { ptr, ptr }
%struct.rtree_ctx_s = type { [16 x %struct.rtree_ctx_cache_elm_s], [8 x %struct.rtree_ctx_cache_elm_s] }
%struct.rtree_ctx_cache_elm_s = type { i64, ptr }
%struct.atomic_u8_t = type { i8 }
%struct.tcache_s = type { ptr, [76 x %struct.cache_bin_s] }
%struct.cache_bin_s = type { ptr, %struct.cache_bin_stats_s, i16, i16, i16 }
%struct.cache_bin_stats_s = type { i64 }
%struct.witness_tsd_s = type { %struct.witness_list_t, i8 }
%struct.witness_list_t = type { ptr }
%struct.buf_writer_t = type { ptr, ptr, ptr, i64, i64, i8 }

@tsd_tls = external thread_local(initialexec) global %struct.tsd_s, align 8
@tsd_booted = external global i8, align 1

; Function Attrs: nounwind uwtable
define dso_local void @je_malloc_stats_print(ptr noundef %write_cb, ptr noundef %cbopaque, ptr noundef %opts) #0 {
entry:
  %init.addr.i.i = alloca i8, align 1
  %tsd.addr.i17.i = alloca ptr, align 8
  %tsd.addr.i.i5 = alloca ptr, align 8
  %retval.i6 = alloca ptr, align 8
  %init.addr.i = alloca i8, align 1
  %minimal.addr.i = alloca i8, align 1
  %tsd.i = alloca ptr, align 8
  %tsd.addr.i.i = alloca ptr, align 8
  %retval.i = alloca ptr, align 8
  %tsdn.addr.i4 = alloca ptr, align 8
  %tsdn.addr.i = alloca ptr, align 8
  %write_cb.addr = alloca ptr, align 8
  %cbopaque.addr = alloca ptr, align 8
  %opts.addr = alloca ptr, align 8
  %tsdn = alloca ptr, align 8
  %buf_writer = alloca %struct.buf_writer_t, align 8
  store ptr %write_cb, ptr %write_cb.addr, align 8
  store ptr %cbopaque, ptr %cbopaque.addr, align 8
  store ptr %opts, ptr %opts.addr, align 8
  br label %do.body

do.body:                                          ; preds = %entry
  br label %do.end

do.end:                                           ; preds = %do.body
  %0 = load i8, ptr @tsd_booted, align 1
  %tobool.i8 = trunc i8 %0 to i1
  br i1 %tobool.i8, label %if.end.i, label %if.then.i

if.then.i:                                        ; preds = %do.end
  store ptr null, ptr %retval.i, align 8
  br label %tsdn_fetch.exit

if.end.i:                                         ; preds = %do.end
  store i8 0, ptr %init.addr.i, align 1
  store i8 0, ptr %minimal.addr.i, align 1
  %1 = load i8, ptr %init.addr.i, align 1
  %tobool.i = trunc i8 %1 to i1
  %frombool.i.i = zext i1 %tobool.i to i8
  store i8 %frombool.i.i, ptr %init.addr.i.i, align 1
  %2 = call align 8 ptr @llvm.threadlocal.address.p0(ptr align 8 @tsd_tls)
  store ptr %2, ptr %tsd.i, align 8
  %3 = load i8, ptr %init.addr.i, align 1
  %tobool2.i = trunc i8 %3 to i1
  br i1 %tobool2.i, label %if.end.i7, label %land.lhs.true.i

land.lhs.true.i:                                  ; preds = %if.end.i
  br label %if.end.i7

if.end.i7:                                        ; preds = %land.lhs.true.i, %if.end.i
  %4 = load ptr, ptr %tsd.i, align 8
  store ptr %4, ptr %tsd.addr.i17.i, align 8
  %5 = load ptr, ptr %tsd.addr.i17.i, align 8
  %state.i.i = getelementptr inbounds %struct.tsd_s, ptr %5, i32 0, i32 29
  %6 = load i8, ptr %state.i.i, align 8
  %conv.i = zext i8 %6 to i32
  %cmp6.i = icmp ne i32 %conv.i, 0
  br i1 %cmp6.i, label %if.then11.i, label %if.end14.i

if.then11.i:                                      ; preds = %if.end.i7
  %7 = load ptr, ptr %tsd.i, align 8
  %8 = load i8, ptr %minimal.addr.i, align 1
  %tobool12.i = trunc i8 %8 to i1
  %call13.i = call ptr @tsd_fetch_slow(ptr noundef %7, i1 noundef zeroext %tobool12.i) #14
  store ptr %call13.i, ptr %retval.i6, align 8
  br label %tsd_fetch_impl.exit

if.end14.i:                                       ; preds = %if.end.i7
  %9 = load ptr, ptr %tsd.i, align 8
  store ptr %9, ptr %tsd.addr.i.i5, align 8
  %10 = load ptr, ptr %tsd.i, align 8
  store ptr %10, ptr %retval.i6, align 8
  br label %tsd_fetch_impl.exit

tsd_fetch_impl.exit:                              ; preds = %if.end14.i, %if.then11.i
  %11 = load ptr, ptr %retval.i6, align 8
  store ptr %11, ptr %tsd.addr.i.i, align 8
  %12 = load ptr, ptr %tsd.addr.i.i, align 8
  store ptr %12, ptr %retval.i, align 8
  br label %tsdn_fetch.exit

tsdn_fetch.exit:                                  ; preds = %tsd_fetch_impl.exit, %if.then.i
  %13 = load ptr, ptr %retval.i, align 8
  store ptr %13, ptr %tsdn, align 8
  %14 = load ptr, ptr %tsdn, align 8
  store ptr %14, ptr %tsdn.addr.i4, align 8
  %15 = load ptr, ptr %tsdn, align 8
  %16 = load ptr, ptr %write_cb.addr, align 8
  %17 = load ptr, ptr %cbopaque.addr, align 8
  %call1 = call zeroext i1 @buf_writer_init(ptr noundef %15, ptr noundef %buf_writer, ptr noundef %16, ptr noundef %17, ptr noundef null, i64 noundef 65536)
  %18 = load ptr, ptr %opts.addr, align 8
  call void @stats_print(ptr noundef @buf_writer_cb, ptr noundef %buf_writer, ptr noundef %18)
  %19 = load ptr, ptr %tsdn, align 8
  call void @buf_writer_terminate(ptr noundef %19, ptr noundef %buf_writer)
  %20 = load ptr, ptr %tsdn, align 8
  store ptr %20, ptr %tsdn.addr.i, align 8
  br label %do.body2

do.body2:                                         ; preds = %tsdn_fetch.exit
  br label %do.end3

do.end3:                                          ; preds = %do.body2
  ret void
}