; Function Attrs: nounwind uwtable
define dso_local void @je_malloc_stats_print(ptr noundef %write_cb, ptr noundef %cbopaque, ptr noundef %opts) local_unnamed_addr #1 {
entry:
  %buf_writer = alloca %struct.buf_writer_t, align 8
  %0 = load i8, ptr @tsd_booted, align 1
  %1 = and i8 %0, 1
  %tobool.i8.not = icmp eq i8 %1, 0
  br i1 %tobool.i8.not, label %tsdn_fetch.exit, label %if.end.i

if.end.i:                                         ; preds = %entry
  %2 = tail call align 8 ptr @llvm.threadlocal.address.p0(ptr align 8 @tsd_tls)
  %state.i.i = getelementptr inbounds i8, ptr %2, i64 832
  %3 = load i8, ptr %state.i.i, align 8
  %cmp6.i.not = icmp eq i8 %3, 0
  br i1 %cmp6.i.not, label %tsdn_fetch.exit, label %if.then11.i

if.then11.i:                                      ; preds = %if.end.i
  %call13.i = tail call ptr @tsd_fetch_slow(ptr noundef nonnull %2, i1 noundef zeroext false) #19
  br label %tsdn_fetch.exit

tsdn_fetch.exit:                                  ; preds = %if.then11.i, %if.end.i, %entry
  %retval.i.0 = phi ptr [ null, %entry ], [ %call13.i, %if.then11.i ], [ %2, %if.end.i ]
  %call1 = call zeroext i1 @buf_writer_init(ptr noundef %retval.i.0, ptr noundef nonnull %buf_writer, ptr noundef %write_cb, ptr noundef %cbopaque, ptr noundef null, i64 noundef 65536) #19
  call void @stats_print(ptr noundef nonnull @buf_writer_cb, ptr noundef nonnull %buf_writer, ptr noundef %opts) #19
  call void @buf_writer_terminate(ptr noundef %retval.i.0, ptr noundef nonnull %buf_writer) #19
  ret void
}